target datalayout = "e-m:e-p270:32:32-p271:32:32-p272:64:64-i64:64-i128:128-f80:128-n8:16:32:64-S128"
target triple = "x86_64-pc-linux-gnu"

%struct.Hop_Obj_t_ = type { %union.anon, %union.anon.0, ptr, ptr, i32, i32 }
%union.anon = type { ptr }
%union.anon.0 = type { ptr }
%struct.Hop_Man_t_ = type { ptr, ptr, ptr, ptr, %struct.Hop_Obj_t_, [6 x i32], i32, i32, ptr, i32, ptr, i32, i32, i32, ptr, ptr, ptr, i64, i64 }

; Function Attrs: nounwind uwtable
define internal i32 @Hop_ObjType(ptr noundef %0) #0 {
  %2 = alloca ptr, align 8
  store ptr %0, ptr %2, align 8
  %3 = load ptr, ptr %2, align 8
  %4 = getelementptr inbounds %struct.Hop_Obj_t_, ptr %3, i32 0, i32 4
  %5 = load i32, ptr %4, align 8
  %6 = and i32 %5, 7
  ret i32 %6
}

; Function Attrs: nounwind uwtable
define ptr @Hop_ObjCreate(ptr noundef %0, ptr noundef %1) #0 {
  %3 = alloca ptr, align 8
  %4 = alloca ptr, align 8
  %5 = alloca ptr, align 8
  store ptr %0, ptr %3, align 8
  store ptr %1, ptr %4, align 8
  %6 = load ptr, ptr %3, align 8
  %7 = call ptr @Hop_ManFetchMemory(ptr noundef %6)
  store ptr %7, ptr %5, align 8
  %8 = load ptr, ptr %4, align 8
  %9 = getelementptr inbounds %struct.Hop_Obj_t_, ptr %8, i32 0, i32 4
  %10 = load i32, ptr %9, align 8
  %11 = and i32 %10, 7
  %12 = load ptr, ptr %5, align 8
  %13 = getelementptr inbounds %struct.Hop_Obj_t_, ptr %12, i32 0, i32 4
  %14 = load i32, ptr %13, align 8
  %15 = and i32 %11, 7
  %16 = and i32 %14, -8
  %17 = or i32 %16, %15
  store i32 %17, ptr %13, align 8
  %18 = load ptr, ptr %3, align 8
  %19 = load ptr, ptr %5, align 8
  %20 = load ptr, ptr %4, align 8
  %21 = getelementptr inbounds %struct.Hop_Obj_t_, ptr %20, i32 0, i32 2
  %22 = load ptr, ptr %21, align 8
  %23 = load ptr, ptr %4, align 8
  %24 = getelementptr inbounds %struct.Hop_Obj_t_, ptr %23, i32 0, i32 3
  %25 = load ptr, ptr %24, align 8
  call void @Hop_ObjConnect(ptr noundef %18, ptr noundef %19, ptr noundef %22, ptr noundef %25)
  %26 = load ptr, ptr %3, align 8
  %27 = getelementptr inbounds %struct.Hop_Man_t_, ptr %26, i32 0, i32 5
  %28 = load ptr, ptr %5, align 8
  %29 = call i32 @Hop_ObjType(ptr noundef %28)
  %30 = zext i32 %29 to i64
  %31 = getelementptr inbounds [6 x i32], ptr %27, i64 0, i64 %30
  %32 = load i32, ptr %31, align 4
  %33 = add nsw i32 %32, 1
  store i32 %33, ptr %31, align 4
  %34 = load ptr, ptr %5, align 8
  ret ptr %34
}