; Function Attrs: nounwind uwtable
define noundef ptr @Hop_ObjCreate(ptr noundef %0, ptr noundef readonly captures(none) %1) local_unnamed_addr #0 {
  %3 = tail call fastcc ptr @Hop_ManFetchMemory(ptr noundef %0)
  %4 = getelementptr inbounds nuw i8, ptr %1, i64 32
  %5 = load i32, ptr %4, align 8
  %6 = and i32 %5, 7
  %7 = getelementptr inbounds nuw i8, ptr %3, i64 32
  %8 = load i32, ptr %7, align 8
  %9 = and i32 %8, -8
  %10 = or disjoint i32 %9, %6
  store i32 %10, ptr %7, align 8
  %11 = getelementptr inbounds nuw i8, ptr %1, i64 16
  %12 = load ptr, ptr %11, align 8
  %13 = getelementptr inbounds nuw i8, ptr %1, i64 24
  %14 = load ptr, ptr %13, align 8
  tail call void @Hop_ObjConnect(ptr noundef %0, ptr noundef %3, ptr noundef %12, ptr noundef %14)
  %15 = getelementptr inbounds nuw i8, ptr %0, i64 72
  %.val = load i32, ptr %7, align 8
  %16 = and i32 %.val, 7
  %17 = zext nneg i32 %16 to i64
  %18 = getelementptr inbounds nuw [6 x i32], ptr %15, i64 0, i64 %17
  %19 = load i32, ptr %18, align 4
  %20 = add nsw i32 %19, 1
  store i32 %20, ptr %18, align 4
  ret ptr %3
}